target datalayout = "e-m:e-p270:32:32-p271:32:32-p272:64:64-i64:64-i128:128-f80:128-n8:16:32:64-S128"
target triple = "x86_64-pc-linux-gnu"

%struct.btMatrixX = type { i32, i32, i32, i32, i32, [4 x i8], %class.btAlignedObjectArray, %class.btAlignedObjectArray.0 }
%class.btAlignedObjectArray = type <{ [4 x i8], i32, i32, [4 x i8], ptr, i8, [7 x i8] }>
%class.btAlignedObjectArray.0 = type <{ [4 x i8], i32, i32, [4 x i8], ptr, i8, [7 x i8] }>

@.str = private unnamed_addr constant [17 x i8] c"b3Error[%s,%d]:\0A\00", align 1
@.str.1 = private unnamed_addr constant [130 x i8] c"generated/home/dtcxzyw/WorkSpace/Projects/compilers/llvm-opt-benchmark/bench/bullet3/bullet3/src/BulletInverseDynamics/IDMath.cpp\00", align 1
@.str.3 = private unnamed_addr constant [44 x i8] c"size missmatch. a.cols()= %d, b.cols()= %d\0A\00", align 1

; Function Attrs: inlinehint mustprogress nounwind uwtable
define linkonce_odr dso_local noundef nonnull align 4 dereferenceable(4) ptr @_ZN20btAlignedObjectArrayIfEixEi(ptr noundef nonnull align 8 dereferenceable(25) %0, i32 noundef %1) #4 comdat align 2 {
  %3 = alloca ptr, align 8
  %4 = alloca i32, align 4
  store ptr %0, ptr %3, align 8, !tbaa !54
  store i32 %1, ptr %4, align 4, !tbaa !9
  %5 = load ptr, ptr %3, align 8
  %6 = getelementptr inbounds nuw %class.btAlignedObjectArray, ptr %5, i32 0, i32 4
  %7 = load ptr, ptr %6, align 8, !tbaa !56
  %8 = load i32, ptr %4, align 4, !tbaa !9
  %9 = sext i32 %8 to i64
  %10 = getelementptr inbounds float, ptr %7, i64 %9
  ret ptr %10
}

; Function Attrs: mustprogress nounwind uwtable
define linkonce_odr dso_local void @_ZN9btMatrixXIfE7setElemEiif(ptr noundef nonnull align 8 dereferenceable(88) %0, i32 noundef %1, i32 noundef %2, float noundef %3) #1 comdat align 2 {
  %5 = alloca ptr, align 8
  %6 = alloca i32, align 4
  %7 = alloca i32, align 4
  %8 = alloca float, align 4
  store ptr %0, ptr %5, align 8, !tbaa !30
  store i32 %1, ptr %6, align 4, !tbaa !9
  store i32 %2, ptr %7, align 4, !tbaa !9
  store float %3, ptr %8, align 4, !tbaa !14
  %9 = load ptr, ptr %5, align 8
  %10 = getelementptr inbounds nuw %struct.btMatrixX, ptr %9, i32 0, i32 4
  %11 = load i32, ptr %10, align 8, !tbaa !59
  %12 = add nsw i32 %11, 1
  store i32 %12, ptr %10, align 8, !tbaa !59
  %13 = load float, ptr %8, align 4, !tbaa !14
  %14 = getelementptr inbounds nuw %struct.btMatrixX, ptr %9, i32 0, i32 6
  %15 = load i32, ptr %6, align 4, !tbaa !9
  %16 = getelementptr inbounds nuw %struct.btMatrixX, ptr %9, i32 0, i32 1
  %17 = load i32, ptr %16, align 4, !tbaa !32
  %18 = mul nsw i32 %15, %17
  %19 = load i32, ptr %7, align 4, !tbaa !9
  %20 = add nsw i32 %18, %19
  %21 = call noundef nonnull align 4 dereferenceable(4) ptr @_ZN20btAlignedObjectArrayIfEixEi(ptr noundef nonnull align 8 dereferenceable(25) %14, i32 noundef %20)
  store float %13, ptr %21, align 4, !tbaa !14
  ret void
}

; Function Attrs: inlinehint mustprogress nounwind uwtable
define linkonce_odr dso_local noundef nonnull align 4 dereferenceable(4) ptr @_ZNK20btAlignedObjectArrayIfEixEi(ptr noundef nonnull align 8 dereferenceable(25) %0, i32 noundef %1) #4 comdat align 2 {
  %3 = alloca ptr, align 8
  %4 = alloca i32, align 4
  store ptr %0, ptr %3, align 8, !tbaa !54
  store i32 %1, ptr %4, align 4, !tbaa !9
  %5 = load ptr, ptr %3, align 8
  %6 = getelementptr inbounds nuw %class.btAlignedObjectArray, ptr %5, i32 0, i32 4
  %7 = load ptr, ptr %6, align 8, !tbaa !56
  %8 = load i32, ptr %4, align 4, !tbaa !9
  %9 = sext i32 %8 to i64
  %10 = getelementptr inbounds float, ptr %7, i64 %9
  ret ptr %10
}

; Function Attrs: inlinehint mustprogress uwtable
define linkonce_odr dso_local void @_ZN24btInverseDynamicsBullet312setMat3xElemEiifPNS_5mat3xE(i32 noundef %0, i32 noundef %1, float noundef %2, ptr noundef %3) #8 comdat {
  %5 = alloca i32, align 4
  %6 = alloca i32, align 4
  %7 = alloca float, align 4
  %8 = alloca ptr, align 8
  store i32 %0, ptr %5, align 4, !tbaa !9
  store i32 %1, ptr %6, align 4, !tbaa !9
  store float %2, ptr %7, align 4, !tbaa !14
  store ptr %3, ptr %8, align 8, !tbaa !26
  %9 = load ptr, ptr %8, align 8, !tbaa !26
  %10 = load i32, ptr %5, align 4, !tbaa !9
  %11 = load i32, ptr %6, align 4, !tbaa !9
  %12 = load float, ptr %7, align 4, !tbaa !14
  call void @_ZN9btMatrixXIfE7setElemEiif(ptr noundef nonnull align 8 dereferenceable(88) %9, i32 noundef %10, i32 noundef %11, float noundef %12)
  ret void
}

; Function Attrs: mustprogress nounwind uwtable
define linkonce_odr dso_local noundef nonnull align 4 dereferenceable(4) ptr @_ZNK9btMatrixXIfEclEii(ptr noundef nonnull align 8 dereferenceable(88) %0, i32 noundef %1, i32 noundef %2) #1 comdat align 2 {
  %4 = alloca ptr, align 8
  %5 = alloca i32, align 4
  %6 = alloca i32, align 4
  store ptr %0, ptr %4, align 8, !tbaa !30
  store i32 %1, ptr %5, align 4, !tbaa !9
  store i32 %2, ptr %6, align 4, !tbaa !9
  %7 = load ptr, ptr %4, align 8
  %8 = getelementptr inbounds nuw %struct.btMatrixX, ptr %7, i32 0, i32 6
  %9 = load i32, ptr %6, align 4, !tbaa !9
  %10 = load i32, ptr %5, align 4, !tbaa !9
  %11 = getelementptr inbounds nuw %struct.btMatrixX, ptr %7, i32 0, i32 1
  %12 = load i32, ptr %11, align 4, !tbaa !32
  %13 = mul nsw i32 %10, %12
  %14 = add nsw i32 %9, %13
  %15 = call noundef nonnull align 4 dereferenceable(4) ptr @_ZNK20btAlignedObjectArrayIfEixEi(ptr noundef nonnull align 8 dereferenceable(25) %8, i32 noundef %14)
  ret ptr %15
}

; Function Attrs: mustprogress nounwind uwtable
define linkonce_odr dso_local noundef i32 @_ZNK9btMatrixXIfE4colsEv(ptr noundef nonnull align 8 dereferenceable(88) %0) #1 comdat align 2 {
  %2 = alloca ptr, align 8
  store ptr %0, ptr %2, align 8, !tbaa !30
  %3 = load ptr, ptr %2, align 8
  %4 = getelementptr inbounds nuw %struct.btMatrixX, ptr %3, i32 0, i32 1
  %5 = load i32, ptr %4, align 4, !tbaa !32
  ret i32 %5
}

; Function Attrs: mustprogress uwtable
define dso_local void @_ZN24btInverseDynamicsBullet33addERKNS_5mat3xES2_PS0_(ptr noundef nonnull align 8 dereferenceable(88) %0, ptr noundef nonnull align 8 dereferenceable(88) %1, ptr noundef %2) #2 {
  %4 = alloca ptr, align 8
  %5 = alloca ptr, align 8
  %6 = alloca ptr, align 8
  %7 = alloca i32, align 4
  %8 = alloca i32, align 4
  %9 = alloca i32, align 4
  store ptr %0, ptr %4, align 8, !tbaa !26
  store ptr %1, ptr %5, align 8, !tbaa !26
  store ptr %2, ptr %6, align 8, !tbaa !26
  %10 = load ptr, ptr %4, align 8, !tbaa !26
  %11 = call noundef i32 @_ZNK9btMatrixXIfE4colsEv(ptr noundef nonnull align 8 dereferenceable(88) %10)
  %12 = load ptr, ptr %5, align 8, !tbaa !26
  %13 = call noundef i32 @_ZNK9btMatrixXIfE4colsEv(ptr noundef nonnull align 8 dereferenceable(88) %12)
  %14 = icmp ne i32 %11, %13
  br i1 %14, label %15, label %22

15:                                               ; preds = %3
  br label %16

16:                                               ; preds = %15
  call void (ptr, ...) @b3OutputErrorMessageVarArgsInternal(ptr noundef @.str, ptr noundef @.str.1, i32 noundef 121)
  %17 = load ptr, ptr %4, align 8, !tbaa !26
  %18 = call noundef i32 @_ZNK9btMatrixXIfE4colsEv(ptr noundef nonnull align 8 dereferenceable(88) %17)
  %19 = load ptr, ptr %5, align 8, !tbaa !26
  %20 = call noundef i32 @_ZNK9btMatrixXIfE4colsEv(ptr noundef nonnull align 8 dereferenceable(88) %19)
  call void (ptr, ...) @b3OutputErrorMessageVarArgsInternal(ptr noundef @.str.3, i32 noundef %18, i32 noundef %20)
  br label %21

21:                                               ; preds = %16
  call void @abort() #11
  unreachable

22:                                               ; preds = %3
  call void @llvm.lifetime.start.p0(i64 4, ptr %7) #10
  store i32 0, ptr %7, align 4, !tbaa !9
  br label %23

23:                                               ; preds = %53, %22
  %24 = load i32, ptr %7, align 4, !tbaa !9
  %25 = load ptr, ptr %5, align 8, !tbaa !26
  %26 = call noundef i32 @_ZNK9btMatrixXIfE4colsEv(ptr noundef nonnull align 8 dereferenceable(88) %25)
  %27 = icmp slt i32 %24, %26
  br i1 %27, label %29, label %28

28:                                               ; preds = %23
  store i32 4, ptr %8, align 4
  call void @llvm.lifetime.end.p0(i64 4, ptr %7) #10
  br label %56

29:                                               ; preds = %23
  call void @llvm.lifetime.start.p0(i64 4, ptr %9) #10
  store i32 0, ptr %9, align 4, !tbaa !9
  br label %30

30:                                               ; preds = %49, %29
  %31 = load i32, ptr %9, align 4, !tbaa !9
  %32 = icmp slt i32 %31, 3
  br i1 %32, label %34, label %33

33:                                               ; preds = %30
  store i32 7, ptr %8, align 4
  call void @llvm.lifetime.end.p0(i64 4, ptr %9) #10
  br label %52

34:                                               ; preds = %30
  %35 = load i32, ptr %9, align 4, !tbaa !9
  %36 = load i32, ptr %7, align 4, !tbaa !9
  %37 = load ptr, ptr %4, align 8, !tbaa !26
  %38 = load i32, ptr %9, align 4, !tbaa !9
  %39 = load i32, ptr %7, align 4, !tbaa !9
  %40 = call noundef nonnull align 4 dereferenceable(4) ptr @_ZNK9btMatrixXIfEclEii(ptr noundef nonnull align 8 dereferenceable(88) %37, i32 noundef %38, i32 noundef %39)
  %41 = load float, ptr %40, align 4, !tbaa !14
  %42 = load ptr, ptr %5, align 8, !tbaa !26
  %43 = load i32, ptr %9, align 4, !tbaa !9
  %44 = load i32, ptr %7, align 4, !tbaa !9
  %45 = call noundef nonnull align 4 dereferenceable(4) ptr @_ZNK9btMatrixXIfEclEii(ptr noundef nonnull align 8 dereferenceable(88) %42, i32 noundef %43, i32 noundef %44)
  %46 = load float, ptr %45, align 4, !tbaa !14
  %47 = fadd float %41, %46
  %48 = load ptr, ptr %6, align 8, !tbaa !26
  call void @_ZN24btInverseDynamicsBullet312setMat3xElemEiifPNS_5mat3xE(i32 noundef %35, i32 noundef %36, float noundef %47, ptr noundef %48)
  br label %49

49:                                               ; preds = %34
  %50 = load i32, ptr %9, align 4, !tbaa !9
  %51 = add nsw i32 %50, 1
  store i32 %51, ptr %9, align 4, !tbaa !9
  br label %30, !llvm.loop !43

52:                                               ; preds = %33
  br label %53

53:                                               ; preds = %52
  %54 = load i32, ptr %7, align 4, !tbaa !9
  %55 = add nsw i32 %54, 1
  store i32 %55, ptr %7, align 4, !tbaa !9
  br label %23, !llvm.loop !44

56:                                               ; preds = %28
  ret void
}