; Function Attrs: mustprogress uwtable
define dso_local void @_ZN24btInverseDynamicsBullet33addERKNS_5mat3xES2_PS0_(ptr noundef nonnull readonly align 8 captures(none) dereferenceable(88) %0, ptr noundef nonnull readonly align 8 captures(none) dereferenceable(88) %1, ptr noundef captures(none) %2) local_unnamed_addr #5 {
  %4 = getelementptr inbounds nuw i8, ptr %0, i64 4
  %5 = load i32, ptr %4, align 4, !tbaa !19
  %6 = getelementptr inbounds nuw i8, ptr %1, i64 4
  %7 = load i32, ptr %6, align 4, !tbaa !19
  %.not = icmp eq i32 %5, %7
  br i1 %.not, label %.preheader18, label %21

.preheader18:                                     ; preds = %3
  %8 = icmp sgt i32 %5, 0
  br i1 %8, label %.preheader.lr.ph, label %25

.preheader.lr.ph:                                 ; preds = %.preheader18
  %9 = getelementptr inbounds nuw i8, ptr %0, i64 40
  %10 = load ptr, ptr %9, align 8, !tbaa !15
  %11 = getelementptr inbounds nuw i8, ptr %1, i64 40
  %12 = load ptr, ptr %11, align 8, !tbaa !15
  %13 = getelementptr inbounds nuw i8, ptr %2, i64 16
  %14 = getelementptr inbounds nuw i8, ptr %2, i64 4
  %15 = load i32, ptr %14, align 4, !tbaa !19
  %16 = getelementptr inbounds nuw i8, ptr %2, i64 40
  %17 = load ptr, ptr %16, align 8, !tbaa !15
  %.promoted21 = load i32, ptr %13, align 8, !tbaa !26
  %18 = sext i32 %15 to i64
  %19 = zext nneg i32 %5 to i64
  %20 = mul i32 %5, 3
  %wide.trip.count = zext nneg i32 %5 to i64
  br label %.preheader

21:                                               ; preds = %3
  tail call void (ptr, ...) @b3OutputErrorMessageVarArgsInternal(ptr noundef nonnull @.str, ptr noundef nonnull @.str.1, i32 noundef 121)
  %22 = load i32, ptr %4, align 4, !tbaa !19
  %23 = load i32, ptr %6, align 4, !tbaa !19
  tail call void (ptr, ...) @b3OutputErrorMessageVarArgsInternal(ptr noundef nonnull @.str.3, i32 noundef %22, i32 noundef %23)
  tail call void @abort() #13
  unreachable

.preheader:                                       ; preds = %.preheader.lr.ph, %26
  %indvars.iv24 = phi i64 [ 0, %.preheader.lr.ph ], [ %indvars.iv.next25, %26 ]
  %invariant.gep = getelementptr float, ptr %17, i64 %indvars.iv24
  br label %27

._crit_edge:                                      ; preds = %26
  %24 = add i32 %.promoted21, %20
  store i32 %24, ptr %13, align 8, !tbaa !26
  br label %25

25:                                               ; preds = %._crit_edge, %.preheader18
  ret void

26:                                               ; preds = %27
  %indvars.iv.next25 = add nuw nsw i64 %indvars.iv24, 1
  %exitcond27.not = icmp eq i64 %indvars.iv.next25, %wide.trip.count
  br i1 %exitcond27.not, label %._crit_edge, label %.preheader, !llvm.loop !28

27:                                               ; preds = %.preheader, %27
  %indvars.iv = phi i64 [ 0, %.preheader ], [ %indvars.iv.next, %27 ]
  %28 = mul nuw nsw i64 %indvars.iv, %19
  %29 = add nuw nsw i64 %28, %indvars.iv24
  %30 = getelementptr inbounds nuw float, ptr %10, i64 %29
  %31 = load float, ptr %30, align 4, !tbaa !4
  %32 = getelementptr inbounds nuw float, ptr %12, i64 %29
  %33 = load float, ptr %32, align 4, !tbaa !4
  %34 = fadd float %31, %33
  %35 = mul nsw i64 %indvars.iv, %18
  %gep = getelementptr float, ptr %invariant.gep, i64 %35
  store float %34, ptr %gep, align 4, !tbaa !4
  %indvars.iv.next = add nuw nsw i64 %indvars.iv, 1
  %exitcond.not = icmp eq i64 %indvars.iv.next, 3
  br i1 %exitcond.not, label %26, label %27, !llvm.loop !29
}